target datalayout = "e-m:e-p270:32:32-p271:32:32-p272:64:64-i64:64-i128:128-f80:128-n8:16:32:64-S128"
target triple = "x86_64-pc-linux-gnu"

%struct.AVFilterContext = type { ptr, ptr, ptr, ptr, ptr, i32, ptr, ptr, i32, ptr, ptr, i32, i32, ptr, ptr, ptr, ptr, i32, ptr, i32, i32 }
%struct.FFTFILTContext = type { ptr, i32, i32, i32, i32, [4 x i32], [4 x i32], [32 x [4 x ptr]], [32 x [4 x ptr]], [32 x [4 x ptr]], [32 x [4 x ptr]], ptr, ptr, ptr, ptr, [4 x i32], [4 x i32], [4 x i64], [4 x i64], [4 x i64], [4 x i64], [4 x ptr], [4 x ptr], [4 x ptr], [4 x ptr], [4 x i32], [4 x ptr], [4 x ptr], [4 x ptr], ptr, ptr }

; Function Attrs: nounwind uwtable
define internal i32 @multiply_data(ptr noundef %0, ptr noundef %1, i32 noundef %2, i32 noundef %3) #1 {
  %5 = alloca ptr, align 8
  %6 = alloca ptr, align 8
  %7 = alloca i32, align 4
  %8 = alloca i32, align 4
  %9 = alloca ptr, align 8
  %10 = alloca i32, align 4
  %11 = alloca i32, align 4
  %12 = alloca i32, align 4
  %13 = alloca i32, align 4
  %14 = alloca i32, align 4
  %15 = alloca i32, align 4
  %16 = alloca ptr, align 8
  %17 = alloca ptr, align 8
  %18 = alloca i32, align 4
  store ptr %0, ptr %5, align 8, !tbaa !4
  store ptr %1, ptr %6, align 8, !tbaa !26
  store i32 %2, ptr %7, align 4, !tbaa !24
  store i32 %3, ptr %8, align 4, !tbaa !24
  call void @llvm.lifetime.start.p0(i64 8, ptr %9) #10
  %19 = load ptr, ptr %5, align 8, !tbaa !4
  %20 = getelementptr inbounds nuw %struct.AVFilterContext, ptr %19, i32 0, i32 9
  %21 = load ptr, ptr %20, align 8, !tbaa !9
  store ptr %21, ptr %9, align 8, !tbaa !22
  call void @llvm.lifetime.start.p0(i64 4, ptr %10) #10
  store i32 0, ptr %10, align 4, !tbaa !24
  br label %22

22:                                               ; preds = %120, %4
  %23 = load i32, ptr %10, align 4, !tbaa !24
  %24 = load ptr, ptr %9, align 8, !tbaa !22
  %25 = getelementptr inbounds nuw %struct.FFTFILTContext, ptr %24, i32 0, i32 3
  %26 = load i32, ptr %25, align 8, !tbaa !51
  %27 = icmp slt i32 %23, %26
  br i1 %27, label %29, label %28

28:                                               ; preds = %22
  store i32 2, ptr %11, align 4
  call void @llvm.lifetime.end.p0(i64 4, ptr %10) #10
  br label %123

29:                                               ; preds = %22
  call void @llvm.lifetime.start.p0(i64 4, ptr %12) #10
  %30 = load ptr, ptr %9, align 8, !tbaa !22
  %31 = getelementptr inbounds nuw %struct.FFTFILTContext, ptr %30, i32 0, i32 19
  %32 = load i32, ptr %10, align 4, !tbaa !24
  %33 = sext i32 %32 to i64
  %34 = getelementptr inbounds [4 x i64], ptr %31, i64 0, i64 %33
  %35 = load i64, ptr %34, align 8, !tbaa !54
  %36 = trunc i64 %35 to i32
  store i32 %36, ptr %12, align 4, !tbaa !24
  call void @llvm.lifetime.start.p0(i64 4, ptr %13) #10
  %37 = load i32, ptr %12, align 4, !tbaa !24
  %38 = load i32, ptr %7, align 4, !tbaa !24
  %39 = mul nsw i32 %37, %38
  %40 = load i32, ptr %8, align 4, !tbaa !24
  %41 = sdiv i32 %39, %40
  store i32 %41, ptr %13, align 4, !tbaa !24
  call void @llvm.lifetime.start.p0(i64 4, ptr %14) #10
  %42 = load i32, ptr %12, align 4, !tbaa !24
  %43 = load i32, ptr %7, align 4, !tbaa !24
  %44 = add nsw i32 %43, 1
  %45 = mul nsw i32 %42, %44
  %46 = load i32, ptr %8, align 4, !tbaa !24
  %47 = sdiv i32 %45, %46
  store i32 %47, ptr %14, align 4, !tbaa !24
  call void @llvm.lifetime.start.p0(i64 4, ptr %15) #10
  %48 = load i32, ptr %13, align 4, !tbaa !24
  store i32 %48, ptr %15, align 4, !tbaa !24
  br label %49

49:                                               ; preds = %116, %29
  %50 = load i32, ptr %15, align 4, !tbaa !24
  %51 = load i32, ptr %14, align 4, !tbaa !24
  %52 = icmp slt i32 %50, %51
  br i1 %52, label %54, label %53

53:                                               ; preds = %49
  store i32 5, ptr %11, align 4
  call void @llvm.lifetime.end.p0(i64 4, ptr %15) #10
  br label %119

54:                                               ; preds = %49
  call void @llvm.lifetime.start.p0(i64 8, ptr %16) #10
  %55 = load ptr, ptr %9, align 8, !tbaa !22
  %56 = getelementptr inbounds nuw %struct.FFTFILTContext, ptr %55, i32 0, i32 28
  %57 = load i32, ptr %10, align 4, !tbaa !24
  %58 = sext i32 %57 to i64
  %59 = getelementptr inbounds [4 x ptr], ptr %56, i64 0, i64 %58
  %60 = load ptr, ptr %59, align 8, !tbaa !75
  %61 = load i32, ptr %15, align 4, !tbaa !24
  %62 = sext i32 %61 to i64
  %63 = load ptr, ptr %9, align 8, !tbaa !22
  %64 = getelementptr inbounds nuw %struct.FFTFILTContext, ptr %63, i32 0, i32 20
  %65 = load i32, ptr %10, align 4, !tbaa !24
  %66 = sext i32 %65 to i64
  %67 = getelementptr inbounds [4 x i64], ptr %64, i64 0, i64 %66
  %68 = load i64, ptr %67, align 8, !tbaa !54
  %69 = mul i64 %62, %68
  %70 = getelementptr inbounds nuw double, ptr %60, i64 %69
  store ptr %70, ptr %16, align 8, !tbaa !75
  call void @llvm.lifetime.start.p0(i64 8, ptr %17) #10
  %71 = load ptr, ptr %9, align 8, !tbaa !22
  %72 = getelementptr inbounds nuw %struct.FFTFILTContext, ptr %71, i32 0, i32 24
  %73 = load i32, ptr %10, align 4, !tbaa !24
  %74 = sext i32 %73 to i64
  %75 = getelementptr inbounds [4 x ptr], ptr %72, i64 0, i64 %74
  %76 = load ptr, ptr %75, align 8, !tbaa !57
  %77 = load i32, ptr %15, align 4, !tbaa !24
  %78 = sext i32 %77 to i64
  %79 = load ptr, ptr %9, align 8, !tbaa !22
  %80 = getelementptr inbounds nuw %struct.FFTFILTContext, ptr %79, i32 0, i32 18
  %81 = load i32, ptr %10, align 4, !tbaa !24
  %82 = sext i32 %81 to i64
  %83 = getelementptr inbounds [4 x i64], ptr %80, i64 0, i64 %82
  %84 = load i64, ptr %83, align 8, !tbaa !54
  %85 = mul i64 %78, %84
  %86 = getelementptr inbounds nuw float, ptr %76, i64 %85
  store ptr %86, ptr %17, align 8, !tbaa !57
  call void @llvm.lifetime.start.p0(i64 4, ptr %18) #10
  store i32 0, ptr %18, align 4, !tbaa !24
  br label %87

87:                                               ; preds = %112, %54
  %88 = load i32, ptr %18, align 4, !tbaa !24
  %89 = sext i32 %88 to i64
  %90 = load ptr, ptr %9, align 8, !tbaa !22
  %91 = getelementptr inbounds nuw %struct.FFTFILTContext, ptr %90, i32 0, i32 20
  %92 = load i32, ptr %10, align 4, !tbaa !24
  %93 = sext i32 %92 to i64
  %94 = getelementptr inbounds [4 x i64], ptr %91, i64 0, i64 %93
  %95 = load i64, ptr %94, align 8, !tbaa !54
  %96 = icmp ult i64 %89, %95
  br i1 %96, label %98, label %97

97:                                               ; preds = %87
  store i32 8, ptr %11, align 4
  call void @llvm.lifetime.end.p0(i64 4, ptr %18) #10
  br label %115

98:                                               ; preds = %87
  %99 = load ptr, ptr %16, align 8, !tbaa !75
  %100 = load i32, ptr %18, align 4, !tbaa !24
  %101 = sext i32 %100 to i64
  %102 = getelementptr inbounds double, ptr %99, i64 %101
  %103 = load double, ptr %102, align 8, !tbaa !89
  %104 = load ptr, ptr %17, align 8, !tbaa !57
  %105 = load i32, ptr %18, align 4, !tbaa !24
  %106 = sext i32 %105 to i64
  %107 = getelementptr inbounds float, ptr %104, i64 %106
  %108 = load float, ptr %107, align 4, !tbaa !59
  %109 = fpext nsz float %108 to double
  %110 = fmul nsz double %109, %103
  %111 = fptrunc nsz double %110 to float
  store float %111, ptr %107, align 4, !tbaa !59
  br label %112

112:                                              ; preds = %98
  %113 = load i32, ptr %18, align 4, !tbaa !24
  %114 = add nsw i32 %113, 1
  store i32 %114, ptr %18, align 4, !tbaa !24
  br label %87, !llvm.loop !93

115:                                              ; preds = %97
  call void @llvm.lifetime.end.p0(i64 8, ptr %17) #10
  call void @llvm.lifetime.end.p0(i64 8, ptr %16) #10
  br label %116

116:                                              ; preds = %115
  %117 = load i32, ptr %15, align 4, !tbaa !24
  %118 = add nsw i32 %117, 1
  store i32 %118, ptr %15, align 4, !tbaa !24
  br label %49, !llvm.loop !94

119:                                              ; preds = %53
  call void @llvm.lifetime.end.p0(i64 4, ptr %14) #10
  call void @llvm.lifetime.end.p0(i64 4, ptr %13) #10
  call void @llvm.lifetime.end.p0(i64 4, ptr %12) #10
  br label %120

120:                                              ; preds = %119
  %121 = load i32, ptr %10, align 4, !tbaa !24
  %122 = add nsw i32 %121, 1
  store i32 %122, ptr %10, align 4, !tbaa !24
  br label %22, !llvm.loop !95

123:                                              ; preds = %28
  store i32 1, ptr %11, align 4
  call void @llvm.lifetime.end.p0(i64 8, ptr %9) #10
  ret i32 0
}