; Function Attrs: nofree norecurse nosync nounwind memory(readwrite, inaccessiblemem: none) uwtable
define internal noundef i32 @multiply_data(ptr noundef readonly captures(none) %0, ptr readnone captures(none) %1, i32 noundef %2, i32 noundef %3) #4 {
  %5 = getelementptr inbounds nuw i8, ptr %0, i64 72
  %6 = load ptr, ptr %5, align 8, !tbaa !4
  %7 = getelementptr inbounds nuw i8, ptr %6, i64 16
  %8 = load i32, ptr %7, align 8, !tbaa !48
  %9 = icmp sgt i32 %8, 0
  br i1 %9, label %.lr.ph, label %._crit_edge

.lr.ph:                                           ; preds = %4
  %10 = getelementptr inbounds nuw i8, ptr %6, i64 4280
  %11 = add nsw i32 %2, 1
  %12 = getelementptr inbounds nuw i8, ptr %6, i64 4552
  %13 = getelementptr inbounds nuw i8, ptr %6, i64 4312
  %14 = getelementptr inbounds nuw i8, ptr %6, i64 4440
  %15 = getelementptr inbounds nuw i8, ptr %6, i64 4248
  %wide.trip.count51 = zext nneg i32 %8 to i64
  br label %16

._crit_edge:                                      ; preds = %._crit_edge40, %4
  ret i32 0

16:                                               ; preds = %.lr.ph, %._crit_edge40
  %indvars.iv48 = phi i64 [ 0, %.lr.ph ], [ %indvars.iv.next49, %._crit_edge40 ]
  %17 = getelementptr inbounds nuw [4 x i64], ptr %10, i64 0, i64 %indvars.iv48
  %18 = load i64, ptr %17, align 8, !tbaa !56
  %19 = trunc i64 %18 to i32
  %20 = mul nsw i32 %2, %19
  %21 = sdiv i32 %20, %3
  %22 = mul nsw i32 %11, %19
  %23 = sdiv i32 %22, %3
  %24 = icmp slt i32 %21, %23
  br i1 %24, label %.lr.ph39, label %._crit_edge40

.lr.ph39:                                         ; preds = %16
  %25 = getelementptr inbounds nuw [4 x ptr], ptr %12, i64 0, i64 %indvars.iv48
  %26 = load ptr, ptr %25, align 8, !tbaa !57
  %27 = getelementptr inbounds nuw [4 x i64], ptr %13, i64 0, i64 %indvars.iv48
  %28 = load i64, ptr %27, align 8, !tbaa !56
  %29 = getelementptr inbounds nuw [4 x ptr], ptr %14, i64 0, i64 %indvars.iv48
  %30 = load ptr, ptr %29, align 8, !tbaa !63
  %31 = getelementptr inbounds nuw [4 x i64], ptr %15, i64 0, i64 %indvars.iv48
  %32 = load i64, ptr %31, align 8, !tbaa !56
  %.not = icmp eq i64 %28, 0
  br i1 %.not, label %._crit_edge40, label %.lr.ph.us.preheader

.lr.ph.us.preheader:                              ; preds = %.lr.ph39
  %33 = sext i32 %21 to i64
  %wide.trip.count = sext i32 %23 to i64
  br label %.lr.ph.us

.lr.ph.us:                                        ; preds = %.lr.ph.us.preheader, %._crit_edge.us
  %indvars.iv44 = phi i64 [ %33, %.lr.ph.us.preheader ], [ %indvars.iv.next45, %._crit_edge.us ]
  %34 = mul i64 %28, %indvars.iv44
  %35 = getelementptr inbounds nuw double, ptr %26, i64 %34
  %36 = mul i64 %32, %indvars.iv44
  %37 = getelementptr inbounds nuw float, ptr %30, i64 %36
  br label %38

38:                                               ; preds = %.lr.ph.us, %38
  %indvars.iv = phi i64 [ 0, %.lr.ph.us ], [ %indvars.iv.next, %38 ]
  %39 = getelementptr inbounds nuw double, ptr %35, i64 %indvars.iv
  %40 = load double, ptr %39, align 8, !tbaa !54
  %41 = getelementptr inbounds nuw float, ptr %37, i64 %indvars.iv
  %42 = load float, ptr %41, align 4, !tbaa !65
  %43 = fpext nsz float %42 to double
  %44 = fmul nsz double %40, %43
  %45 = fptrunc nsz double %44 to float
  store float %45, ptr %41, align 4, !tbaa !65
  %indvars.iv.next = add nuw nsw i64 %indvars.iv, 1
  %exitcond.not = icmp eq i64 %indvars.iv.next, %28
  br i1 %exitcond.not, label %._crit_edge.us, label %38, !llvm.loop !90

._crit_edge.us:                                   ; preds = %38
  %indvars.iv.next45 = add nsw i64 %indvars.iv44, 1
  %exitcond47.not = icmp eq i64 %indvars.iv.next45, %wide.trip.count
  br i1 %exitcond47.not, label %._crit_edge40, label %.lr.ph.us, !llvm.loop !91

._crit_edge40:                                    ; preds = %._crit_edge.us, %.lr.ph39, %16
  %indvars.iv.next49 = add nuw nsw i64 %indvars.iv48, 1
  %exitcond52.not = icmp eq i64 %indvars.iv.next49, %wide.trip.count51
  br i1 %exitcond52.not, label %._crit_edge, label %16, !llvm.loop !92
}